; Function Attrs: nounwind uwtable
define internal i32 @cff_cmap_unicode_char_index(ptr noundef %0, i32 noundef %1) #4 {
  %3 = load ptr, ptr %0, align 8
  %4 = getelementptr inbounds i8, ptr %3, i64 1168
  %5 = load ptr, ptr %4, align 8
  %6 = getelementptr inbounds i8, ptr %5, i64 4960
  %7 = load ptr, ptr %6, align 8
  %8 = getelementptr inbounds i8, ptr %7, i64 16
  %9 = load ptr, ptr %8, align 8
  %10 = tail call i32 %9(ptr noundef nonnull %0, i32 noundef %1) #20
  ret i32 %10
}